; Function Attrs: mustprogress nofree norecurse nosync nounwind memory(readwrite, inaccessiblemem: none) uwtable
define hidden void @_ZN3sat4prob13reinit_valuesEv(ptr nocapture noundef nonnull align 8 dereferenceable(816) %this) local_unnamed_addr #9 align 2 {
entry:
  %m_values.i = getelementptr inbounds i8, ptr %this, i64 656
  %m_rand.i = getelementptr inbounds i8, ptr %this, i64 744
  %m_config.i = getelementptr inbounds i8, ptr %this, i64 8
  %m_best_values7.i = getelementptr inbounds i8, ptr %this, i64 664
  br label %for.cond.i

for.cond.i:                                       ; preds = %for.body.i, %entry
  %indvars.iv.i = phi i64 [ %indvars.iv.next.i, %for.body.i ], [ 0, %entry ]
  %0 = load ptr, ptr %m_values.i, align 8
  %cmp.i.i = icmp eq ptr %0, null
  br i1 %cmp.i.i, label %_ZNK6vectorIbLb0EjE4sizeEv.exit.i, label %if.end.i.i

if.end.i.i:                                       ; preds = %for.cond.i
  %arrayidx.i.i = getelementptr inbounds i8, ptr %0, i64 -4
  %1 = load i32, ptr %arrayidx.i.i, align 4
  br label %_ZNK6vectorIbLb0EjE4sizeEv.exit.i

_ZNK6vectorIbLb0EjE4sizeEv.exit.i:                ; preds = %if.end.i.i, %for.cond.i
  %retval.0.i.i = phi i32 [ %1, %if.end.i.i ], [ 0, %for.cond.i ]
  %2 = zext i32 %retval.0.i.i to i64
  %cmp.i = icmp ult i64 %indvars.iv.i, %2
  br i1 %cmp.i, label %for.body.i, label %_ZN3sat4prob21init_near_best_valuesEv.exit

for.body.i:                                       ; preds = %_ZNK6vectorIbLb0EjE4sizeEv.exit.i
  %3 = load i32, ptr %m_rand.i, align 8
  %mul.i.i.i = mul i32 %3, 214013
  %add.i.i.i = add i32 %mul.i.i.i, 2531011
  store i32 %add.i.i.i, ptr %m_rand.i, align 8
  %shr.i.i.i = lshr i32 %add.i.i.i, 16
  %4 = trunc i32 %shr.i.i.i to i16
  %rem.i.lhs.trunc.i = and i16 %4, 32767
  %rem.i13.i = urem i16 %rem.i.lhs.trunc.i, 100
  %rem.i.zext.i = zext nneg i16 %rem.i13.i to i32
  %5 = load i32, ptr %m_config.i, align 8
  %cmp3.i = icmp ugt i32 %5, %rem.i.zext.i
  %6 = load ptr, ptr %m_best_values7.i, align 8
  %arrayidx.i6.i = getelementptr inbounds i8, ptr %6, i64 %indvars.iv.i
  %7 = load i8, ptr %arrayidx.i6.i, align 1
  %8 = and i8 %7, 1
  %frombool.i = zext i1 %cmp3.i to i8
  %.sink.i = xor i8 %8, %frombool.i
  %9 = getelementptr inbounds i8, ptr %0, i64 %indvars.iv.i
  store i8 %.sink.i, ptr %9, align 1
  %indvars.iv.next.i = add nuw nsw i64 %indvars.iv.i, 1
  br label %for.cond.i, !llvm.loop !6

_ZN3sat4prob21init_near_best_valuesEv.exit:       ; preds = %_ZNK6vectorIbLb0EjE4sizeEv.exit.i
  ret void
}